; Function Attrs: mustprogress uwtable
define hidden void @_ZN19OpenColorIO_v2_5dev26FixedFunctionTransformImpl8setStyleENS_18FixedFunctionStyleE(ptr noundef nonnull align 8 dereferenceable(208) %0, i32 noundef %1) unnamed_addr #0 align 2 {
  %3 = load ptr, ptr %0, align 8, !tbaa !3
  %4 = getelementptr inbounds nuw i8, ptr %3, i64 8
  %5 = load ptr, ptr %4, align 8
  %6 = tail call noundef i32 %5(ptr noundef nonnull align 8 dereferenceable(208) %0) #21
  %7 = tail call noundef i32 @_ZN19OpenColorIO_v2_5dev19FixedFunctionOpData12ConvertStyleENS_18FixedFunctionStyleENS_18TransformDirectionE(i32 noundef %1, i32 noundef %6)
  %8 = getelementptr inbounds nuw i8, ptr %0, i64 176
  store i32 %7, ptr %8, align 8, !tbaa !33
  ret void
}